; Function Attrs: nounwind uwtable
define dso_local range(i32 -901, 1) i32 @nghttp2_bufs_wrap_init2(ptr noundef writeonly captures(none) %0, ptr noundef readonly captures(none) %1, i64 noundef %2, ptr noundef %3) local_unnamed_addr #1 {
  %5 = alloca ptr, align 8
  call void @llvm.lifetime.start.p0(i64 8, ptr nonnull %5)
  %6 = icmp eq i64 %2, 0
  br i1 %6, label %7, label %13

7:                                                ; preds = %4
  %8 = tail call ptr @nghttp2_mem_malloc(ptr noundef %3, i64 noundef 48) #10
  %9 = icmp eq ptr %8, null
  br i1 %9, label %nghttp2_bufs_wrap_init.exit, label %10

10:                                               ; preds = %7
  %11 = getelementptr inbounds nuw i8, ptr %0, i64 16
  tail call void @llvm.memset.p0.i64(ptr noundef nonnull align 8 dereferenceable(48) %8, i8 0, i64 48, i1 false)
  store ptr %3, ptr %11, align 8, !tbaa !14
  %12 = getelementptr inbounds nuw i8, ptr %0, i64 56
  store i64 0, ptr %12, align 8, !tbaa !18
  br label %nghttp2_bufs_wrap_init.exit.sink.split

13:                                               ; preds = %4
  %14 = mul i64 %2, 48
  %15 = tail call ptr @nghttp2_mem_malloc(ptr noundef %3, i64 noundef %14) #10
  store ptr %15, ptr %5, align 8, !tbaa !31
  %16 = icmp eq ptr %15, null
  br i1 %16, label %nghttp2_bufs_wrap_init.exit, label %.preheader

.preheader:                                       ; preds = %13, %nghttp2_buf_wrap_init.exit
  %.037 = phi ptr [ %17, %nghttp2_buf_wrap_init.exit ], [ %5, %13 ]
  %.03236 = phi i64 [ %29, %nghttp2_buf_wrap_init.exit ], [ 0, %13 ]
  %.0..0..0..0.33 = load ptr, ptr %5, align 8, !tbaa !31
  %17 = getelementptr inbounds nuw %struct.nghttp2_buf_chain, ptr %.0..0..0..0.33, i64 %.03236
  store ptr null, ptr %17, align 8, !tbaa !28
  %18 = getelementptr inbounds nuw i8, ptr %17, i64 8
  %19 = getelementptr inbounds nuw %struct.nghttp2_vec, ptr %1, i64 %.03236
  %20 = load ptr, ptr %19, align 8, !tbaa !32
  %21 = getelementptr inbounds nuw i8, ptr %19, i64 8
  %22 = load i64, ptr %21, align 8, !tbaa !34
  %23 = getelementptr inbounds nuw i8, ptr %17, i64 16
  store ptr %20, ptr %23, align 8, !tbaa !13
  %24 = getelementptr inbounds nuw i8, ptr %17, i64 40
  store ptr %20, ptr %24, align 8, !tbaa !12
  %25 = getelementptr inbounds nuw i8, ptr %17, i64 32
  store ptr %20, ptr %25, align 8, !tbaa !11
  %26 = getelementptr inbounds nuw i8, ptr %17, i64 24
  store ptr %20, ptr %26, align 8, !tbaa !4
  store ptr %20, ptr %18, align 8, !tbaa !10
  %.not.i = icmp eq i64 %22, 0
  br i1 %.not.i, label %nghttp2_buf_wrap_init.exit, label %27

27:                                               ; preds = %.preheader
  %28 = getelementptr inbounds nuw i8, ptr %20, i64 %22
  store ptr %28, ptr %23, align 8, !tbaa !13
  br label %nghttp2_buf_wrap_init.exit

nghttp2_buf_wrap_init.exit:                       ; preds = %.preheader, %27
  store ptr %17, ptr %.037, align 8, !tbaa !31
  %29 = add nuw i64 %.03236, 1
  %exitcond.not = icmp eq i64 %29, %2
  br i1 %exitcond.not, label %30, label %.preheader, !llvm.loop !35

30:                                               ; preds = %nghttp2_buf_wrap_init.exit
  %31 = getelementptr inbounds nuw i8, ptr %0, i64 16
  store ptr %3, ptr %31, align 8, !tbaa !14
  %32 = getelementptr inbounds nuw i8, ptr %0, i64 56
  store i64 0, ptr %32, align 8, !tbaa !18
  %.0..0..0..0.34 = load ptr, ptr %5, align 8, !tbaa !31
  br label %nghttp2_bufs_wrap_init.exit.sink.split

nghttp2_bufs_wrap_init.exit.sink.split:           ; preds = %30, %10
  %.sink46 = phi ptr [ %8, %10 ], [ %.0..0..0..0.34, %30 ]
  %.sink41 = phi i64 [ 1, %10 ], [ %2, %30 ]
  store ptr %.sink46, ptr %0, align 8, !tbaa !19
  %33 = getelementptr inbounds nuw i8, ptr %0, i64 8
  store ptr %.sink46, ptr %33, align 8, !tbaa !20
  %34 = getelementptr inbounds nuw i8, ptr %0, i64 24
  store i64 0, ptr %34, align 8, !tbaa !24
  %35 = getelementptr inbounds nuw i8, ptr %0, i64 40
  store i64 %.sink41, ptr %35, align 8, !tbaa !25
  %36 = getelementptr inbounds nuw i8, ptr %0, i64 32
  store i64 %.sink41, ptr %36, align 8, !tbaa !26
  %37 = getelementptr inbounds nuw i8, ptr %0, i64 48
  store i64 %.sink41, ptr %37, align 8, !tbaa !27
  br label %nghttp2_bufs_wrap_init.exit

nghttp2_bufs_wrap_init.exit:                      ; preds = %nghttp2_bufs_wrap_init.exit.sink.split, %7, %13
  %.031 = phi i32 [ -901, %13 ], [ -901, %7 ], [ 0, %nghttp2_bufs_wrap_init.exit.sink.split ]
  call void @llvm.lifetime.end.p0(i64 8, ptr nonnull %5)
  ret i32 %.031
}